target datalayout = "e-m:e-p270:32:32-p271:32:32-p272:64:64-i64:64-i128:128-f80:128-n8:16:32:64-S128"
target triple = "x86_64-pc-linux-gnu"

%class.symbol = type { ptr }
%class.hnf = type { ptr }
%"class.hnf::imp" = type { ptr, i8, %class.ref_vector, %class.ref_vector.0, %class.ref_vector, %class.symbol, %class.svector, %class.ptr_vector.6, %class.quantifier_hoister, %class.obj_map, %class.obj_map, %class.ref_vector.8, %class.ref_vector, %class.ref_vector.0, %"class.hnf::imp::contains_predicate_proc", %class.expr_free_vars, %class.ast_fast_mark }
%class.svector = type { %class.vector.5 }
%class.vector.5 = type { ptr }
%class.ptr_vector.6 = type { %class.vector.7 }
%class.vector.7 = type { ptr }
%class.quantifier_hoister = type { ptr }
%class.obj_map = type { %class.core_hashtable }
%class.core_hashtable = type <{ ptr, i32, i32, i32, [4 x i8] }>
%class.ref_vector.8 = type { %class.ref_vector_core.9 }
%class.ref_vector_core.9 = type { %class.ref_manager_wrapper.10, %class.ptr_vector.11 }
%class.ref_manager_wrapper.10 = type { ptr }
%class.ptr_vector.11 = type { %class.vector.12 }
%class.vector.12 = type { ptr }
%class.ref_vector = type { %class.ref_vector_core }
%class.ref_vector_core = type { %class.ref_manager_wrapper, %class.ptr_vector }
%class.ref_manager_wrapper = type { ptr }
%class.ptr_vector = type { %class.vector }
%class.vector = type { ptr }
%class.ref_vector.0 = type { %class.ref_vector_core.1 }
%class.ref_vector_core.1 = type { %class.ref_manager_wrapper.2, %class.ptr_vector.3 }
%class.ref_manager_wrapper.2 = type { ptr }
%class.ptr_vector.3 = type { %class.vector.4 }
%class.vector.4 = type { ptr }
%"class.hnf::imp::contains_predicate_proc" = type { ptr }
%class.expr_free_vars = type { %class.expr_sparse_mark, %class.ptr_vector.6, %class.ptr_vector }
%class.expr_sparse_mark = type { %class.obj_hashtable }
%class.obj_hashtable = type { %class.core_hashtable.base.14, [4 x i8] }
%class.core_hashtable.base.14 = type <{ ptr, i32, i32, i32 }>
%class.ast_fast_mark = type { %class.ptr_buffer }
%class.ptr_buffer = type { %class.buffer }
%class.buffer = type { ptr, i32, i32, [128 x i8] }

@.str = private unnamed_addr constant [2 x i8] c"P\00", align 1
@_ZN6symbol4nullE = external global %class.symbol, align 8

; Function Attrs: mustprogress nounwind uwtable
define linkonce_odr hidden noundef zeroext i1 @_ZeqRK6symbolS1_(ptr noundef nonnull align 8 dereferenceable(8) %0, ptr noundef nonnull align 8 dereferenceable(8) %1) #5 comdat {
  %3 = alloca ptr, align 8
  %4 = alloca ptr, align 8
  store ptr %0, ptr %3, align 8, !tbaa !71
  store ptr %1, ptr %4, align 8, !tbaa !71
  %5 = load ptr, ptr %3, align 8, !tbaa !71
  %6 = getelementptr inbounds nuw %class.symbol, ptr %5, i32 0, i32 0
  %7 = load ptr, ptr %6, align 8, !tbaa !373
  %8 = load ptr, ptr %4, align 8, !tbaa !71
  %9 = getelementptr inbounds nuw %class.symbol, ptr %8, i32 0, i32 0
  %10 = load ptr, ptr %9, align 8, !tbaa !373
  %11 = icmp eq ptr %7, %10
  ret i1 %11
}

; Function Attrs: mustprogress uwtable
define linkonce_odr hidden void @_ZN3hnf3imp8set_nameERK6symbol(ptr noundef nonnull align 8 dereferenceable(384) %0, ptr noundef nonnull align 8 dereferenceable(8) %1) #4 comdat align 2 {
  %3 = alloca ptr, align 8
  %4 = alloca ptr, align 8
  %5 = alloca %class.symbol, align 8
  store ptr %0, ptr %3, align 8, !tbaa !13
  store ptr %1, ptr %4, align 8, !tbaa !71
  %6 = load ptr, ptr %3, align 8
  %7 = load ptr, ptr %4, align 8, !tbaa !71
  %8 = call noundef zeroext i1 @_ZeqRK6symbolS1_(ptr noundef nonnull align 8 dereferenceable(8) %7, ptr noundef nonnull align 8 dereferenceable(8) @_ZN6symbol4nullE)
  br i1 %8, label %9, label %11

9:                                                ; preds = %2
  call void @llvm.lifetime.start.p0(i64 8, ptr %5) #3
  call void @_ZN6symbolC1EPKc(ptr noundef nonnull align 8 dereferenceable(8) %5, ptr noundef @.str)
  %10 = getelementptr inbounds nuw %"class.hnf::imp", ptr %6, i32 0, i32 5
  call void @llvm.memcpy.p0.p0.i64(ptr align 8 %10, ptr align 8 %5, i64 8, i1 false), !tbaa.struct !72
  call void @llvm.lifetime.end.p0(i64 8, ptr %5) #3
  br label %14

11:                                               ; preds = %2
  %12 = load ptr, ptr %4, align 8, !tbaa !71
  %13 = getelementptr inbounds nuw %"class.hnf::imp", ptr %6, i32 0, i32 5
  call void @llvm.memcpy.p0.p0.i64(ptr align 8 %13, ptr align 8 %12, i64 8, i1 false), !tbaa.struct !72
  br label %14

14:                                               ; preds = %11, %9
  ret void
}

; Function Attrs: mustprogress uwtable
define hidden void @_ZN3hnf8set_nameERK6symbol(ptr noundef nonnull align 8 dereferenceable(8) %0, ptr noundef nonnull align 8 dereferenceable(8) %1) #4 align 2 {
  %3 = alloca ptr, align 8
  %4 = alloca ptr, align 8
  store ptr %0, ptr %3, align 8, !tbaa !3
  store ptr %1, ptr %4, align 8, !tbaa !71
  %5 = load ptr, ptr %3, align 8
  %6 = getelementptr inbounds nuw %class.hnf, ptr %5, i32 0, i32 0
  %7 = load ptr, ptr %6, align 8, !tbaa !10
  %8 = load ptr, ptr %4, align 8, !tbaa !71
  call void @_ZN3hnf3imp8set_nameERK6symbol(ptr noundef nonnull align 8 dereferenceable(384) %7, ptr noundef nonnull align 8 dereferenceable(8) %8)
  ret void
}