; Function Attrs: mustprogress uwtable
define hidden void @_ZN3hnf8set_nameERK6symbol(ptr noundef nonnull readonly align 8 captures(none) dereferenceable(8) %0, ptr noundef nonnull readonly align 8 captures(none) dereferenceable(8) %1) local_unnamed_addr #3 align 2 {
  %3 = alloca %class.symbol, align 8
  %4 = load ptr, ptr %0, align 8, !tbaa !3
  %5 = load ptr, ptr %1, align 8
  %6 = load ptr, ptr @_ZN6symbol4nullE, align 8, !tbaa !102
  %7 = icmp eq ptr %5, %6
  br i1 %7, label %8, label %10

8:                                                ; preds = %2
  call void @llvm.lifetime.start.p0(i64 8, ptr nonnull %3) #22
  call void @_ZN6symbolC1EPKc(ptr noundef nonnull align 8 dereferenceable(8) %3, ptr noundef nonnull @.str)
  %9 = load i64, ptr %3, align 8, !tbaa !103
  call void @llvm.lifetime.end.p0(i64 8, ptr nonnull %3) #22
  br label %_ZN3hnf3imp8set_nameERK6symbol.exit

10:                                               ; preds = %2
  %11 = ptrtoint ptr %5 to i64
  br label %_ZN3hnf3imp8set_nameERK6symbol.exit

_ZN3hnf3imp8set_nameERK6symbol.exit:              ; preds = %8, %10
  %.sink.i = phi i64 [ %9, %8 ], [ %11, %10 ]
  %12 = getelementptr inbounds nuw i8, ptr %4, i64 64
  store i64 %.sink.i, ptr %12, align 8, !tbaa !103
  ret void
}